target datalayout = "e-m:e-p270:32:32-p271:32:32-p272:64:64-i64:64-i128:128-f80:128-n8:16:32:64-S128"
target triple = "x86_64-pc-linux-gnu"

%"struct.memarena::arena_chunk" = type { ptr, i64, i64 }
%class.memarena = type { %"struct.memarena::arena_chunk", ptr, i32, i64, i64 }

@_ZL23MEMARENA_MAX_CHUNK_SIZE = internal constant i64 67108864, align 8

; Function Attrs: mustprogress nounwind uwtable
define internal noundef i64 @_ZL13round_to_pagem(i64 noundef %0) #2 {
  %2 = alloca i64, align 8
  %3 = alloca i64, align 8
  %4 = alloca i64, align 8
  store i64 %0, ptr %2, align 8, !tbaa !9
  call void @llvm.lifetime.start.p0(i64 8, ptr %3) #6
  store i64 4096, ptr %3, align 8, !tbaa !9
  call void @llvm.lifetime.start.p0(i64 8, ptr %4) #6
  %5 = load i64, ptr %2, align 8, !tbaa !9
  %6 = sub i64 %5, 1
  %7 = and i64 %6, -4096
  %8 = add i64 4096, %7
  store i64 %8, ptr %4, align 8, !tbaa !9
  %9 = load i64, ptr %4, align 8, !tbaa !9
  call void @llvm.lifetime.end.p0(i64 8, ptr %4) #6
  call void @llvm.lifetime.end.p0(i64 8, ptr %3) #6
  ret i64 %9
}

; Function Attrs: inlinehint mustprogress nounwind uwtable
define linkonce_odr noundef nonnull align 8 dereferenceable(8) ptr @_ZSt3minImERKT_S2_S2_(ptr noundef nonnull align 8 dereferenceable(8) %0, ptr noundef nonnull align 8 dereferenceable(8) %1) #5 comdat {
  %3 = alloca ptr, align 8
  %4 = alloca ptr, align 8
  %5 = alloca ptr, align 8
  store ptr %0, ptr %4, align 8, !tbaa !32
  store ptr %1, ptr %5, align 8, !tbaa !32
  %6 = load ptr, ptr %5, align 8, !tbaa !32
  %7 = load i64, ptr %6, align 8, !tbaa !9
  %8 = load ptr, ptr %4, align 8, !tbaa !32
  %9 = load i64, ptr %8, align 8, !tbaa !9
  %10 = icmp ult i64 %7, %9
  br i1 %10, label %11, label %13

11:                                               ; preds = %2
  %12 = load ptr, ptr %5, align 8, !tbaa !32
  store ptr %12, ptr %3, align 8
  br label %15

13:                                               ; preds = %2
  %14 = load ptr, ptr %4, align 8, !tbaa !32
  store ptr %14, ptr %3, align 8
  br label %15

15:                                               ; preds = %13, %11
  %16 = load ptr, ptr %3, align 8
  ret ptr %16
}

; Function Attrs: mustprogress uwtable
define noundef ptr @_ZN8memarena17malloc_from_arenaEm(ptr noundef nonnull align 8 dereferenceable(56) %0, i64 noundef %1) #0 align 2 {
  %3 = alloca ptr, align 8
  %4 = alloca i64, align 8
  %5 = alloca i32, align 4
  %6 = alloca i64, align 8
  %7 = alloca i64, align 8
  %8 = alloca ptr, align 8
  store ptr %0, ptr %3, align 8, !tbaa !4
  store i64 %1, ptr %4, align 8, !tbaa !9
  %9 = load ptr, ptr %3, align 8
  %10 = getelementptr inbounds nuw %class.memarena, ptr %9, i32 0, i32 0
  %11 = getelementptr inbounds nuw %"struct.memarena::arena_chunk", ptr %10, i32 0, i32 0
  %12 = load ptr, ptr %11, align 8, !tbaa !23
  %13 = icmp eq ptr %12, null
  br i1 %13, label %24, label %14

14:                                               ; preds = %2
  %15 = getelementptr inbounds nuw %class.memarena, ptr %9, i32 0, i32 0
  %16 = getelementptr inbounds nuw %"struct.memarena::arena_chunk", ptr %15, i32 0, i32 2
  %17 = load i64, ptr %16, align 8, !tbaa !22
  %18 = getelementptr inbounds nuw %class.memarena, ptr %9, i32 0, i32 0
  %19 = getelementptr inbounds nuw %"struct.memarena::arena_chunk", ptr %18, i32 0, i32 1
  %20 = load i64, ptr %19, align 8, !tbaa !31
  %21 = load i64, ptr %4, align 8, !tbaa !9
  %22 = add i64 %20, %21
  %23 = icmp ult i64 %17, %22
  br i1 %23, label %24, label %90

24:                                               ; preds = %14, %2
  %25 = getelementptr inbounds nuw %class.memarena, ptr %9, i32 0, i32 0
  %26 = getelementptr inbounds nuw %"struct.memarena::arena_chunk", ptr %25, i32 0, i32 0
  %27 = load ptr, ptr %26, align 8, !tbaa !23
  %28 = icmp ne ptr %27, null
  br i1 %28, label %29, label %65

29:                                               ; preds = %24
  call void @llvm.lifetime.start.p0(i64 4, ptr %5) #6
  %30 = getelementptr inbounds nuw %class.memarena, ptr %9, i32 0, i32 2
  %31 = load i32, ptr %30, align 8, !tbaa !21
  store i32 %31, ptr %5, align 4, !tbaa !28
  %32 = getelementptr inbounds nuw %class.memarena, ptr %9, i32 0, i32 1
  %33 = load ptr, ptr %32, align 8, !tbaa !14
  %34 = load i32, ptr %5, align 4, !tbaa !28
  %35 = add nsw i32 %34, 1
  %36 = sext i32 %35 to i64
  %37 = mul i64 %36, 24
  %38 = call noundef ptr @_Z13toku_xreallocPvm(ptr noundef %33, i64 noundef %37)
  %39 = getelementptr inbounds nuw %class.memarena, ptr %9, i32 0, i32 1
  store ptr %38, ptr %39, align 8, !tbaa !14
  %40 = getelementptr inbounds nuw %class.memarena, ptr %9, i32 0, i32 0
  %41 = getelementptr inbounds nuw %class.memarena, ptr %9, i32 0, i32 1
  %42 = load ptr, ptr %41, align 8, !tbaa !14
  %43 = load i32, ptr %5, align 4, !tbaa !28
  %44 = sext i32 %43 to i64
  %45 = getelementptr inbounds %"struct.memarena::arena_chunk", ptr %42, i64 %44
  call void @llvm.memcpy.p0.p0.i64(ptr align 8 %45, ptr align 8 %40, i64 24, i1 false), !tbaa.struct !11
  %46 = load i32, ptr %5, align 4, !tbaa !28
  %47 = add nsw i32 %46, 1
  %48 = getelementptr inbounds nuw %class.memarena, ptr %9, i32 0, i32 2
  store i32 %47, ptr %48, align 8, !tbaa !21
  %49 = getelementptr inbounds nuw %class.memarena, ptr %9, i32 0, i32 0
  %50 = getelementptr inbounds nuw %"struct.memarena::arena_chunk", ptr %49, i32 0, i32 2
  %51 = load i64, ptr %50, align 8, !tbaa !22
  %52 = getelementptr inbounds nuw %class.memarena, ptr %9, i32 0, i32 3
  %53 = load i64, ptr %52, align 8, !tbaa !19
  %54 = add i64 %53, %51
  store i64 %54, ptr %52, align 8, !tbaa !19
  %55 = getelementptr inbounds nuw %class.memarena, ptr %9, i32 0, i32 0
  %56 = getelementptr inbounds nuw %"struct.memarena::arena_chunk", ptr %55, i32 0, i32 0
  %57 = load ptr, ptr %56, align 8, !tbaa !23
  %58 = getelementptr inbounds nuw %class.memarena, ptr %9, i32 0, i32 0
  %59 = getelementptr inbounds nuw %"struct.memarena::arena_chunk", ptr %58, i32 0, i32 1
  %60 = load i64, ptr %59, align 8, !tbaa !31
  %61 = call noundef i64 @_Z21toku_memory_footprintPvm(ptr noundef %57, i64 noundef %60)
  %62 = getelementptr inbounds nuw %class.memarena, ptr %9, i32 0, i32 4
  %63 = load i64, ptr %62, align 8, !tbaa !20
  %64 = add i64 %63, %61
  store i64 %64, ptr %62, align 8, !tbaa !20
  call void @llvm.lifetime.end.p0(i64 4, ptr %5) #6
  br label %65

65:                                               ; preds = %29, %24
  call void @llvm.lifetime.start.p0(i64 8, ptr %6) #6
  call void @llvm.lifetime.start.p0(i64 8, ptr %7) #6
  %66 = getelementptr inbounds nuw %class.memarena, ptr %9, i32 0, i32 0
  %67 = getelementptr inbounds nuw %"struct.memarena::arena_chunk", ptr %66, i32 0, i32 2
  %68 = load i64, ptr %67, align 8, !tbaa !22
  %69 = mul i64 2, %68
  store i64 %69, ptr %7, align 8, !tbaa !9
  %70 = call noundef nonnull align 8 dereferenceable(8) ptr @_ZSt3minImERKT_S2_S2_(ptr noundef nonnull align 8 dereferenceable(8) @_ZL23MEMARENA_MAX_CHUNK_SIZE, ptr noundef nonnull align 8 dereferenceable(8) %7)
  %71 = load i64, ptr %70, align 8, !tbaa !9
  call void @llvm.lifetime.end.p0(i64 8, ptr %7) #6
  store i64 %71, ptr %6, align 8, !tbaa !9
  %72 = load i64, ptr %6, align 8, !tbaa !9
  %73 = load i64, ptr %4, align 8, !tbaa !9
  %74 = icmp ult i64 %72, %73
  br i1 %74, label %75, label %77

75:                                               ; preds = %65
  %76 = load i64, ptr %4, align 8, !tbaa !9
  store i64 %76, ptr %6, align 8, !tbaa !9
  br label %77

77:                                               ; preds = %75, %65
  %78 = load i64, ptr %6, align 8, !tbaa !9
  %79 = call noundef i64 @_ZL13round_to_pagem(i64 noundef %78)
  store i64 %79, ptr %6, align 8, !tbaa !9
  %80 = load i64, ptr %6, align 8, !tbaa !9
  %81 = mul i64 %80, 1
  %82 = call noundef ptr @_Z12toku_xmallocm(i64 noundef %81)
  %83 = getelementptr inbounds nuw %class.memarena, ptr %9, i32 0, i32 0
  %84 = getelementptr inbounds nuw %"struct.memarena::arena_chunk", ptr %83, i32 0, i32 0
  store ptr %82, ptr %84, align 8, !tbaa !23
  %85 = getelementptr inbounds nuw %class.memarena, ptr %9, i32 0, i32 0
  %86 = getelementptr inbounds nuw %"struct.memarena::arena_chunk", ptr %85, i32 0, i32 1
  store i64 0, ptr %86, align 8, !tbaa !31
  %87 = load i64, ptr %6, align 8, !tbaa !9
  %88 = getelementptr inbounds nuw %class.memarena, ptr %9, i32 0, i32 0
  %89 = getelementptr inbounds nuw %"struct.memarena::arena_chunk", ptr %88, i32 0, i32 2
  store i64 %87, ptr %89, align 8, !tbaa !22
  call void @llvm.lifetime.end.p0(i64 8, ptr %6) #6
  br label %90

90:                                               ; preds = %77, %14
  call void @llvm.lifetime.start.p0(i64 8, ptr %8) #6
  %91 = getelementptr inbounds nuw %class.memarena, ptr %9, i32 0, i32 0
  %92 = getelementptr inbounds nuw %"struct.memarena::arena_chunk", ptr %91, i32 0, i32 0
  %93 = load ptr, ptr %92, align 8, !tbaa !23
  %94 = getelementptr inbounds nuw %class.memarena, ptr %9, i32 0, i32 0
  %95 = getelementptr inbounds nuw %"struct.memarena::arena_chunk", ptr %94, i32 0, i32 1
  %96 = load i64, ptr %95, align 8, !tbaa !31
  %97 = getelementptr inbounds nuw i8, ptr %93, i64 %96
  store ptr %97, ptr %8, align 8, !tbaa !12
  %98 = load i64, ptr %4, align 8, !tbaa !9
  %99 = getelementptr inbounds nuw %class.memarena, ptr %9, i32 0, i32 0
  %100 = getelementptr inbounds nuw %"struct.memarena::arena_chunk", ptr %99, i32 0, i32 1
  %101 = load i64, ptr %100, align 8, !tbaa !31
  %102 = add i64 %101, %98
  store i64 %102, ptr %100, align 8, !tbaa !31
  %103 = load ptr, ptr %8, align 8, !tbaa !12
  call void @llvm.lifetime.end.p0(i64 8, ptr %8) #6
  ret ptr %103
}