; Function Attrs: mustprogress uwtable
define noundef ptr @_ZN8memarena17malloc_from_arenaEm(ptr noundef nonnull align 8 captures(none) dereferenceable(56) %0, i64 noundef %1) local_unnamed_addr #0 align 2 {
  %3 = load ptr, ptr %0, align 8, !tbaa !16
  %4 = icmp eq ptr %3, null
  br i1 %4, label %.thread, label %5

5:                                                ; preds = %2
  %6 = getelementptr inbounds nuw i8, ptr %0, i64 16
  %7 = load i64, ptr %6, align 8, !tbaa !15
  %8 = getelementptr inbounds nuw i8, ptr %0, i64 8
  %9 = load i64, ptr %8, align 8, !tbaa !20
  %10 = add i64 %9, %1
  %11 = icmp ult i64 %7, %10
  br i1 %11, label %12, label %40

12:                                               ; preds = %5
  %13 = getelementptr inbounds nuw i8, ptr %0, i64 32
  %14 = load i32, ptr %13, align 8, !tbaa !14
  %15 = getelementptr inbounds nuw i8, ptr %0, i64 24
  %16 = load ptr, ptr %15, align 8, !tbaa !4
  %17 = add nsw i32 %14, 1
  %18 = sext i32 %17 to i64
  %19 = mul nsw i64 %18, 24
  %20 = tail call noundef ptr @_Z13toku_xreallocPvm(ptr noundef %16, i64 noundef %19)
  store ptr %20, ptr %15, align 8, !tbaa !4
  %21 = sext i32 %14 to i64
  %22 = getelementptr inbounds %"struct.memarena::arena_chunk", ptr %20, i64 %21
  tail call void @llvm.memcpy.p0.p0.i64(ptr noundef nonnull align 8 dereferenceable(24) %22, ptr noundef nonnull align 8 dereferenceable(24) %0, i64 24, i1 false), !tbaa.struct !21
  store i32 %17, ptr %13, align 8, !tbaa !14
  %23 = load i64, ptr %6, align 8, !tbaa !15
  %24 = getelementptr inbounds nuw i8, ptr %0, i64 40
  %25 = load i64, ptr %24, align 8, !tbaa !24
  %26 = add i64 %25, %23
  store i64 %26, ptr %24, align 8, !tbaa !24
  %27 = load ptr, ptr %0, align 8, !tbaa !16
  %28 = load i64, ptr %8, align 8, !tbaa !20
  %29 = tail call noundef i64 @_Z21toku_memory_footprintPvm(ptr noundef %27, i64 noundef %28)
  %30 = getelementptr inbounds nuw i8, ptr %0, i64 48
  %31 = load i64, ptr %30, align 8, !tbaa !25
  %32 = add i64 %31, %29
  store i64 %32, ptr %30, align 8, !tbaa !25
  br label %.thread

.thread:                                          ; preds = %2, %12
  %33 = getelementptr inbounds nuw i8, ptr %0, i64 16
  %34 = load i64, ptr %33, align 8, !tbaa !15
  %35 = shl i64 %34, 1
  %.sroa.speculated = tail call i64 @llvm.umin.i64(i64 %35, i64 67108864)
  %spec.select = tail call i64 @llvm.umax.i64(i64 %.sroa.speculated, i64 %1)
  %36 = add i64 %spec.select, -1
  %37 = and i64 %36, -4096
  %38 = add i64 %37, 4096
  %39 = tail call noundef ptr @_Z12toku_xmallocm(i64 noundef %38)
  store ptr %39, ptr %0, align 8, !tbaa !16
  store i64 %38, ptr %33, align 8, !tbaa !15
  br label %40

40:                                               ; preds = %.thread, %5
  %41 = phi i64 [ 0, %.thread ], [ %9, %5 ]
  %42 = phi ptr [ %39, %.thread ], [ %3, %5 ]
  %43 = getelementptr inbounds nuw i8, ptr %0, i64 8
  %44 = getelementptr inbounds nuw i8, ptr %42, i64 %41
  %45 = add i64 %41, %1
  store i64 %45, ptr %43, align 8, !tbaa !20
  ret ptr %44
}